target datalayout = "e-m:e-p270:32:32-p271:32:32-p272:64:64-i64:64-i128:128-f80:128-n8:16:32:64-S128"
target triple = "x86_64-pc-linux-gnu"

@.str.1 = private unnamed_addr constant [56 x i8] c"rb_maygvl_fd_fix_cloexec: fcntl(%d, F_GETFD) failed: %s\00", align 1
@.str.2 = private unnamed_addr constant [60 x i8] c"rb_maygvl_fd_fix_cloexec: fcntl(%d, F_SETFD, %d) failed: %s\00", align 1

; Function Attrs: nounwind sspstrong uwtable
define dso_local void @rb_maygvl_fd_fix_cloexec(i32 noundef %0) #0 {
  %2 = alloca i32, align 4
  %3 = alloca i32, align 4
  %4 = alloca i32, align 4
  %5 = alloca i32, align 4
  store i32 %0, ptr %2, align 4, !tbaa !13
  call void @llvm.lifetime.start.p0(i64 4, ptr %3) #28
  call void @llvm.lifetime.start.p0(i64 4, ptr %4) #28
  call void @llvm.lifetime.start.p0(i64 4, ptr %5) #28
  %6 = load i32, ptr %2, align 4, !tbaa !13
  %7 = call i32 (i32, i32, ...) @fcntl(i32 noundef %6, i32 noundef 1)
  store i32 %7, ptr %3, align 4, !tbaa !13
  %8 = load i32, ptr %3, align 4, !tbaa !13
  %9 = icmp eq i32 %8, -1
  br i1 %9, label %10, label %15

10:                                               ; preds = %1
  %11 = load i32, ptr %2, align 4, !tbaa !13
  %12 = call ptr @rb_errno_ptr()
  %13 = load i32, ptr %12, align 4, !tbaa !13
  %14 = call ptr @strerror(i32 noundef %13) #28
  call void (ptr, ...) @rb_bug(ptr noundef @.str.1, i32 noundef %11, ptr noundef %14) #29
  unreachable

15:                                               ; preds = %1
  %16 = load i32, ptr %2, align 4, !tbaa !13
  %17 = icmp sle i32 %16, 2
  br i1 %17, label %18, label %21

18:                                               ; preds = %15
  %19 = load i32, ptr %3, align 4, !tbaa !13
  %20 = and i32 %19, -2
  store i32 %20, ptr %4, align 4, !tbaa !13
  br label %24

21:                                               ; preds = %15
  %22 = load i32, ptr %3, align 4, !tbaa !13
  %23 = or i32 %22, 1
  store i32 %23, ptr %4, align 4, !tbaa !13
  br label %24

24:                                               ; preds = %21, %18
  %25 = load i32, ptr %3, align 4, !tbaa !13
  %26 = load i32, ptr %4, align 4, !tbaa !13
  %27 = icmp ne i32 %25, %26
  br i1 %27, label %28, label %41

28:                                               ; preds = %24
  %29 = load i32, ptr %2, align 4, !tbaa !13
  %30 = load i32, ptr %4, align 4, !tbaa !13
  %31 = call i32 (i32, i32, ...) @fcntl(i32 noundef %29, i32 noundef 2, i32 noundef %30)
  store i32 %31, ptr %5, align 4, !tbaa !13
  %32 = load i32, ptr %5, align 4, !tbaa !13
  %33 = icmp ne i32 %32, 0
  br i1 %33, label %34, label %40

34:                                               ; preds = %28
  %35 = load i32, ptr %2, align 4, !tbaa !13
  %36 = load i32, ptr %4, align 4, !tbaa !13
  %37 = call ptr @rb_errno_ptr()
  %38 = load i32, ptr %37, align 4, !tbaa !13
  %39 = call ptr @strerror(i32 noundef %38) #28
  call void (ptr, ...) @rb_bug(ptr noundef @.str.2, i32 noundef %35, i32 noundef %36, ptr noundef %39) #29
  unreachable

40:                                               ; preds = %28
  br label %41

41:                                               ; preds = %40, %24
  call void @llvm.lifetime.end.p0(i64 4, ptr %5) #28
  call void @llvm.lifetime.end.p0(i64 4, ptr %4) #28
  call void @llvm.lifetime.end.p0(i64 4, ptr %3) #28
  ret void
}