; Function Attrs: nounwind sspstrong uwtable
define dso_local void @rb_maygvl_fd_fix_cloexec(i32 noundef %0) local_unnamed_addr #0 {
  %2 = tail call i32 (i32, i32, ...) @fcntl(i32 noundef %0, i32 noundef 1) #28
  %3 = icmp eq i32 %2, -1
  br i1 %3, label %4, label %8

4:                                                ; preds = %1
  %5 = tail call ptr @rb_errno_ptr() #28
  %6 = load i32, ptr %5, align 4, !tbaa !20
  %7 = tail call ptr @strerror(i32 noundef %6) #28
  tail call void (ptr, ...) @rb_bug(ptr noundef nonnull @.str.1, i32 noundef %0, ptr noundef %7) #29
  unreachable

8:                                                ; preds = %1
  %9 = icmp sgt i32 %0, 2
  %10 = and i32 %2, -2
  %masksel = zext i1 %9 to i32
  %.0 = or disjoint i32 %10, %masksel
  %.not = icmp eq i32 %2, %.0
  br i1 %.not, label %17, label %11

11:                                               ; preds = %8
  %12 = tail call i32 (i32, i32, ...) @fcntl(i32 noundef %0, i32 noundef 2, i32 noundef %.0) #28
  %.not14 = icmp eq i32 %12, 0
  br i1 %.not14, label %17, label %13

13:                                               ; preds = %11
  %14 = tail call ptr @rb_errno_ptr() #28
  %15 = load i32, ptr %14, align 4, !tbaa !20
  %16 = tail call ptr @strerror(i32 noundef %15) #28
  tail call void (ptr, ...) @rb_bug(ptr noundef nonnull @.str.2, i32 noundef %0, i32 noundef %.0, ptr noundef %16) #29
  unreachable

17:                                               ; preds = %11, %8
  ret void
}